target datalayout = "e-m:e-p270:32:32-p271:32:32-p272:64:64-i64:64-i128:128-f80:128-n8:16:32:64-S128"
target triple = "x86_64-pc-linux-gnu"

%struct.bf_context_t = type { ptr, ptr, %struct.BFConstCache, %struct.BFConstCache, ptr }
%struct.BFConstCache = type { %struct.bf_t, i64 }
%struct.bf_t = type { ptr, i32, i64, i64, ptr }

@digits_per_limb_table = internal constant [35 x i8] c"@( \1B\18\16\15\14\13\12\11\11\10\10\10\0F\0F\0F\0E\0E\0E\0E\0D\0D\0D\0D\0D\0D\0D\0C\0C\0C\0C\0C\0C", align 16

; Function Attrs: inlinehint nounwind uwtable
define internal i32 @clz64(i64 noundef %0) #3 {
  %2 = alloca i64, align 8
  store i64 %0, ptr %2, align 8, !tbaa !27
  %3 = load i64, ptr %2, align 8, !tbaa !27
  %4 = call i64 @llvm.ctlz.i64(i64 %3, i1 true)
  %5 = trunc i64 %4 to i32
  ret i32 %5
}

; Function Attrs: inlinehint nounwind uwtable
define internal ptr @bf_realloc(ptr noundef %0, ptr noundef %1, i64 noundef %2) #3 {
  %4 = alloca ptr, align 8
  %5 = alloca ptr, align 8
  %6 = alloca i64, align 8
  store ptr %0, ptr %4, align 8, !tbaa !7
  store ptr %1, ptr %5, align 8, !tbaa !12
  store i64 %2, ptr %6, align 8, !tbaa !27
  %7 = load ptr, ptr %4, align 8, !tbaa !7
  %8 = getelementptr inbounds nuw %struct.bf_context_t, ptr %7, i32 0, i32 1
  %9 = load ptr, ptr %8, align 8, !tbaa !13
  %10 = load ptr, ptr %4, align 8, !tbaa !7
  %11 = getelementptr inbounds nuw %struct.bf_context_t, ptr %10, i32 0, i32 0
  %12 = load ptr, ptr %11, align 8, !tbaa !21
  %13 = load ptr, ptr %5, align 8, !tbaa !12
  %14 = load i64, ptr %6, align 8, !tbaa !27
  %15 = call ptr %9(ptr noundef %12, ptr noundef %13, i64 noundef %14)
  ret ptr %15
}

; Function Attrs: inlinehint nounwind uwtable
define internal i32 @clz(i64 noundef %0) #3 {
  %2 = alloca i32, align 4
  %3 = alloca i64, align 8
  store i64 %0, ptr %3, align 8, !tbaa !27
  %4 = load i64, ptr %3, align 8, !tbaa !27
  %5 = icmp eq i64 %4, 0
  br i1 %5, label %6, label %7

6:                                                ; preds = %1
  store i32 64, ptr %2, align 4
  br label %10

7:                                                ; preds = %1
  %8 = load i64, ptr %3, align 8, !tbaa !27
  %9 = call i32 @clz64(i64 noundef %8)
  store i32 %9, ptr %2, align 4
  br label %10

10:                                               ; preds = %7, %6
  %11 = load i32, ptr %2, align 4
  ret i32 %11
}

; Function Attrs: inlinehint nounwind uwtable
define internal void @bf_free(ptr noundef %0, ptr noundef %1) #3 {
  %3 = alloca ptr, align 8
  %4 = alloca ptr, align 8
  store ptr %0, ptr %3, align 8, !tbaa !7
  store ptr %1, ptr %4, align 8, !tbaa !12
  %5 = load ptr, ptr %4, align 8, !tbaa !12
  %6 = icmp ne ptr %5, null
  br i1 %6, label %7, label %11

7:                                                ; preds = %2
  %8 = load ptr, ptr %3, align 8, !tbaa !7
  %9 = load ptr, ptr %4, align 8, !tbaa !12
  %10 = call ptr @bf_realloc(ptr noundef %8, ptr noundef %9, i64 noundef 0)
  br label %11

11:                                               ; preds = %7, %2
  ret void
}

; Function Attrs: inlinehint nounwind uwtable
define internal void @bf_delete(ptr noundef %0) #3 {
  %2 = alloca ptr, align 8
  %3 = alloca ptr, align 8
  store ptr %0, ptr %2, align 8, !tbaa !12
  call void @llvm.lifetime.start.p0(i64 8, ptr %3) #10
  %4 = load ptr, ptr %2, align 8, !tbaa !12
  %5 = getelementptr inbounds nuw %struct.bf_t, ptr %4, i32 0, i32 0
  %6 = load ptr, ptr %5, align 8, !tbaa !22
  store ptr %6, ptr %3, align 8, !tbaa !7
  %7 = load ptr, ptr %3, align 8, !tbaa !7
  %8 = icmp ne ptr %7, null
  br i1 %8, label %9, label %20

9:                                                ; preds = %1
  %10 = load ptr, ptr %2, align 8, !tbaa !12
  %11 = getelementptr inbounds nuw %struct.bf_t, ptr %10, i32 0, i32 4
  %12 = load ptr, ptr %11, align 8, !tbaa !26
  %13 = icmp ne ptr %12, null
  br i1 %13, label %14, label %20

14:                                               ; preds = %9
  %15 = load ptr, ptr %3, align 8, !tbaa !7
  %16 = load ptr, ptr %2, align 8, !tbaa !12
  %17 = getelementptr inbounds nuw %struct.bf_t, ptr %16, i32 0, i32 4
  %18 = load ptr, ptr %17, align 8, !tbaa !26
  %19 = call ptr @bf_realloc(ptr noundef %15, ptr noundef %18, i64 noundef 0)
  br label %20

20:                                               ; preds = %14, %9, %1
  call void @llvm.lifetime.end.p0(i64 8, ptr %3) #10
  ret void
}

; Function Attrs: nounwind uwtable
define dso_local void @bf_init(ptr noundef %0, ptr noundef %1) #0 {
  %3 = alloca ptr, align 8
  %4 = alloca ptr, align 8
  store ptr %0, ptr %3, align 8, !tbaa !7
  store ptr %1, ptr %4, align 8, !tbaa !12
  %5 = load ptr, ptr %3, align 8, !tbaa !7
  %6 = load ptr, ptr %4, align 8, !tbaa !12
  %7 = getelementptr inbounds nuw %struct.bf_t, ptr %6, i32 0, i32 0
  store ptr %5, ptr %7, align 8, !tbaa !22
  %8 = load ptr, ptr %4, align 8, !tbaa !12
  %9 = getelementptr inbounds nuw %struct.bf_t, ptr %8, i32 0, i32 1
  store i32 0, ptr %9, align 8, !tbaa !23
  %10 = load ptr, ptr %4, align 8, !tbaa !12
  %11 = getelementptr inbounds nuw %struct.bf_t, ptr %10, i32 0, i32 2
  store i64 -9223372036854775808, ptr %11, align 8, !tbaa !24
  %12 = load ptr, ptr %4, align 8, !tbaa !12
  %13 = getelementptr inbounds nuw %struct.bf_t, ptr %12, i32 0, i32 3
  store i64 0, ptr %13, align 8, !tbaa !25
  %14 = load ptr, ptr %4, align 8, !tbaa !12
  %15 = getelementptr inbounds nuw %struct.bf_t, ptr %14, i32 0, i32 4
  store ptr null, ptr %15, align 8, !tbaa !26
  ret void
}

; Function Attrs: inlinehint nounwind uwtable
define internal ptr @bf_malloc(ptr noundef %0, i64 noundef %1) #3 {
  %3 = alloca ptr, align 8
  %4 = alloca i64, align 8
  store ptr %0, ptr %3, align 8, !tbaa !7
  store i64 %1, ptr %4, align 8, !tbaa !27
  %5 = load ptr, ptr %3, align 8, !tbaa !7
  %6 = load i64, ptr %4, align 8, !tbaa !27
  %7 = call ptr @bf_realloc(ptr noundef %5, ptr noundef null, i64 noundef %6)
  ret ptr %7
}

; Function Attrs: inlinehint nounwind uwtable
define internal i32 @ceil_log2(i64 noundef %0) #3 {
  %2 = alloca i32, align 4
  %3 = alloca i64, align 8
  store i64 %0, ptr %3, align 8, !tbaa !27
  %4 = load i64, ptr %3, align 8, !tbaa !27
  %5 = icmp ule i64 %4, 1
  br i1 %5, label %6, label %7

6:                                                ; preds = %1
  store i32 0, ptr %2, align 4
  br label %12

7:                                                ; preds = %1
  %8 = load i64, ptr %3, align 8, !tbaa !27
  %9 = sub i64 %8, 1
  %10 = call i32 @clz(i64 noundef %9)
  %11 = sub i32 64, %10
  store i32 %11, ptr %2, align 4
  br label %12

12:                                               ; preds = %7, %6
  %13 = load i32, ptr %2, align 4
  ret i32 %13
}

; Function Attrs: nounwind uwtable
define internal i64 @get_limb_radix(i32 noundef %0) #0 {
  %2 = alloca i32, align 4
  %3 = alloca i32, align 4
  %4 = alloca i32, align 4
  %5 = alloca i64, align 8
  store i32 %0, ptr %2, align 4, !tbaa !29
  call void @llvm.lifetime.start.p0(i64 4, ptr %3) #10
  call void @llvm.lifetime.start.p0(i64 4, ptr %4) #10
  call void @llvm.lifetime.start.p0(i64 8, ptr %5) #10
  %6 = load i32, ptr %2, align 4, !tbaa !29
  %7 = sub i32 %6, 2
  %8 = sext i32 %7 to i64
  %9 = getelementptr inbounds [35 x i8], ptr @digits_per_limb_table, i64 0, i64 %8
  %10 = load i8, ptr %9, align 1, !tbaa !71
  %11 = zext i8 %10 to i32
  store i32 %11, ptr %4, align 4, !tbaa !29
  %12 = load i32, ptr %2, align 4, !tbaa !29
  %13 = sext i32 %12 to i64
  store i64 %13, ptr %5, align 8, !tbaa !27
  store i32 1, ptr %3, align 4, !tbaa !29
  br label %14

14:                                               ; preds = %23, %1
  %15 = load i32, ptr %3, align 4, !tbaa !29
  %16 = load i32, ptr %4, align 4, !tbaa !29
  %17 = icmp slt i32 %15, %16
  br i1 %17, label %18, label %26

18:                                               ; preds = %14
  %19 = load i32, ptr %2, align 4, !tbaa !29
  %20 = sext i32 %19 to i64
  %21 = load i64, ptr %5, align 8, !tbaa !27
  %22 = mul i64 %21, %20
  store i64 %22, ptr %5, align 8, !tbaa !27
  br label %23

23:                                               ; preds = %18
  %24 = load i32, ptr %3, align 4, !tbaa !29
  %25 = add i32 %24, 1
  store i32 %25, ptr %3, align 4, !tbaa !29
  br label %14, !llvm.loop !145

26:                                               ; preds = %14
  %27 = load i64, ptr %5, align 8, !tbaa !27
  call void @llvm.lifetime.end.p0(i64 8, ptr %5) #10
  call void @llvm.lifetime.end.p0(i64 4, ptr %4) #10
  call void @llvm.lifetime.end.p0(i64 4, ptr %3) #10
  ret i64 %27
}

; Function Attrs: nounwind uwtable
define internal i32 @bf_integer_from_radix(ptr noundef %0, ptr noundef %1, i64 noundef %2, i64 noundef %3) #0 {
  %5 = alloca i32, align 4
  %6 = alloca ptr, align 8
  %7 = alloca ptr, align 8
  %8 = alloca i64, align 8
  %9 = alloca i64, align 8
  %10 = alloca ptr, align 8
  %11 = alloca i32, align 4
  %12 = alloca i32, align 4
  %13 = alloca i32, align 4
  %14 = alloca i64, align 8
  %15 = alloca ptr, align 8
  %16 = alloca i32, align 4
  store ptr %0, ptr %6, align 8, !tbaa !12
  store ptr %1, ptr %7, align 8, !tbaa !28
  store i64 %2, ptr %8, align 8, !tbaa !27
  store i64 %3, ptr %9, align 8, !tbaa !27
  call void @llvm.lifetime.start.p0(i64 8, ptr %10) #10
  %17 = load ptr, ptr %6, align 8, !tbaa !12
  %18 = getelementptr inbounds nuw %struct.bf_t, ptr %17, i32 0, i32 0
  %19 = load ptr, ptr %18, align 8, !tbaa !22
  store ptr %19, ptr %10, align 8, !tbaa !7
  call void @llvm.lifetime.start.p0(i64 4, ptr %11) #10
  call void @llvm.lifetime.start.p0(i64 4, ptr %12) #10
  call void @llvm.lifetime.start.p0(i64 4, ptr %13) #10
  call void @llvm.lifetime.start.p0(i64 8, ptr %14) #10
  call void @llvm.lifetime.start.p0(i64 8, ptr %15) #10
  %20 = load i64, ptr %9, align 8, !tbaa !27
  %21 = trunc i64 %20 to i32
  %22 = call i64 @get_limb_radix(i32 noundef %21)
  store i64 %22, ptr %14, align 8, !tbaa !27
  %23 = load i64, ptr %8, align 8, !tbaa !27
  %24 = call i32 @ceil_log2(i64 noundef %23)
  %25 = add i32 %24, 2
  store i32 %25, ptr %11, align 4, !tbaa !29
  %26 = load ptr, ptr %10, align 8, !tbaa !7
  %27 = load i32, ptr %11, align 4, !tbaa !29
  %28 = sext i32 %27 to i64
  %29 = mul i64 40, %28
  %30 = call ptr @bf_malloc(ptr noundef %26, i64 noundef %29)
  store ptr %30, ptr %15, align 8, !tbaa !12
  %31 = load ptr, ptr %15, align 8, !tbaa !12
  %32 = icmp ne ptr %31, null
  br i1 %32, label %34, label %33

33:                                               ; preds = %4
  store i32 -1, ptr %5, align 4
  store i32 1, ptr %16, align 4
  br label %74

34:                                               ; preds = %4
  store i32 0, ptr %12, align 4, !tbaa !29
  br label %35

35:                                               ; preds = %47, %34
  %36 = load i32, ptr %12, align 4, !tbaa !29
  %37 = load i32, ptr %11, align 4, !tbaa !29
  %38 = icmp slt i32 %36, %37
  br i1 %38, label %39, label %50

39:                                               ; preds = %35
  %40 = load ptr, ptr %6, align 8, !tbaa !12
  %41 = getelementptr inbounds nuw %struct.bf_t, ptr %40, i32 0, i32 0
  %42 = load ptr, ptr %41, align 8, !tbaa !22
  %43 = load ptr, ptr %15, align 8, !tbaa !12
  %44 = load i32, ptr %12, align 4, !tbaa !29
  %45 = sext i32 %44 to i64
  %46 = getelementptr inbounds %struct.bf_t, ptr %43, i64 %45
  call void @bf_init(ptr noundef %42, ptr noundef %46)
  br label %47

47:                                               ; preds = %39
  %48 = load i32, ptr %12, align 4, !tbaa !29
  %49 = add i32 %48, 1
  store i32 %49, ptr %12, align 4, !tbaa !29
  br label %35, !llvm.loop !143

50:                                               ; preds = %35
  %51 = load ptr, ptr %6, align 8, !tbaa !12
  %52 = load ptr, ptr %7, align 8, !tbaa !28
  %53 = load i64, ptr %8, align 8, !tbaa !27
  %54 = load i64, ptr %8, align 8, !tbaa !27
  %55 = load i64, ptr %14, align 8, !tbaa !27
  %56 = load ptr, ptr %15, align 8, !tbaa !12
  %57 = call i32 @bf_integer_from_radix_rec(ptr noundef %51, ptr noundef %52, i64 noundef %53, i32 noundef 0, i64 noundef %54, i64 noundef %55, ptr noundef %56)
  store i32 %57, ptr %13, align 4, !tbaa !29
  store i32 0, ptr %12, align 4, !tbaa !29
  br label %58

58:                                               ; preds = %67, %50
  %59 = load i32, ptr %12, align 4, !tbaa !29
  %60 = load i32, ptr %11, align 4, !tbaa !29
  %61 = icmp slt i32 %59, %60
  br i1 %61, label %62, label %70

62:                                               ; preds = %58
  %63 = load ptr, ptr %15, align 8, !tbaa !12
  %64 = load i32, ptr %12, align 4, !tbaa !29
  %65 = sext i32 %64 to i64
  %66 = getelementptr inbounds %struct.bf_t, ptr %63, i64 %65
  call void @bf_delete(ptr noundef %66)
  br label %67

67:                                               ; preds = %62
  %68 = load i32, ptr %12, align 4, !tbaa !29
  %69 = add i32 %68, 1
  store i32 %69, ptr %12, align 4, !tbaa !29
  br label %58, !llvm.loop !144

70:                                               ; preds = %58
  %71 = load ptr, ptr %10, align 8, !tbaa !7
  %72 = load ptr, ptr %15, align 8, !tbaa !12
  call void @bf_free(ptr noundef %71, ptr noundef %72)
  %73 = load i32, ptr %13, align 4, !tbaa !29
  store i32 %73, ptr %5, align 4
  store i32 1, ptr %16, align 4
  br label %74

74:                                               ; preds = %70, %33
  call void @llvm.lifetime.end.p0(i64 8, ptr %15) #10
  call void @llvm.lifetime.end.p0(i64 8, ptr %14) #10
  call void @llvm.lifetime.end.p0(i64 4, ptr %13) #10
  call void @llvm.lifetime.end.p0(i64 4, ptr %12) #10
  call void @llvm.lifetime.end.p0(i64 4, ptr %11) #10
  call void @llvm.lifetime.end.p0(i64 8, ptr %10) #10
  %75 = load i32, ptr %5, align 4
  ret i32 %75
}