; Function Attrs: nounwind uwtable
define internal fastcc i32 @bf_integer_from_radix(ptr noundef nonnull %0, ptr noundef %1, i64 noundef range(i64 1, 0) %2, i64 noundef range(i64 -2147483648, 2147483648) %3) unnamed_addr #2 {
  %5 = load ptr, ptr %0, align 8, !tbaa !28
  %sext = shl nsw i64 %3, 32
  %sext32 = add i64 %sext, -8589934592
  %6 = ashr exact i64 %sext32, 32
  %7 = getelementptr inbounds [35 x i8], ptr @digits_per_limb_table, i64 0, i64 %6
  %8 = load i8, ptr %7, align 1, !tbaa !88
  %9 = tail call i8 @llvm.umax.i8(i8 %8, i8 2)
  %umax.i = zext i8 %9 to i32
  br label %.lr.ph.i

.lr.ph.i:                                         ; preds = %.lr.ph.i, %4
  %.010.i = phi i64 [ %10, %.lr.ph.i ], [ %3, %4 ]
  %.089.i = phi i32 [ %11, %.lr.ph.i ], [ 1, %4 ]
  %10 = mul i64 %.010.i, %3
  %11 = add nuw nsw i32 %.089.i, 1
  %exitcond.not.i = icmp eq i32 %11, %umax.i
  br i1 %exitcond.not.i, label %get_limb_radix.exit, label %.lr.ph.i, !llvm.loop !144

get_limb_radix.exit:                              ; preds = %.lr.ph.i
  %12 = icmp ult i64 %2, 2
  br i1 %12, label %ceil_log2.exit, label %13

13:                                               ; preds = %get_limb_radix.exit
  %14 = add i64 %2, -1
  %15 = tail call range(i64 0, 65) i64 @llvm.ctlz.i64(i64 range(i64 1, 0) %14, i1 false)
  %16 = trunc nuw nsw i64 %15 to i32
  %17 = sub nuw nsw i32 66, %16
  br label %ceil_log2.exit

ceil_log2.exit:                                   ; preds = %get_limb_radix.exit, %13
  %.0.i = phi i32 [ %17, %13 ], [ 2, %get_limb_radix.exit ]
  %narrow = mul nuw nsw i32 %.0.i, 40
  %18 = zext nneg i32 %narrow to i64
  %.val = load ptr, ptr %5, align 8, !tbaa !19
  %19 = getelementptr i8, ptr %5, i64 8
  %.val29 = load ptr, ptr %19, align 8, !tbaa !7
  %20 = tail call ptr %.val29(ptr noundef %.val, ptr noundef null, i64 noundef %18) #21
  %.not = icmp eq ptr %20, null
  br i1 %.not, label %36, label %.lr.ph.preheader

.lr.ph.preheader:                                 ; preds = %ceil_log2.exit
  %wide.trip.count = zext nneg i32 %.0.i to i64
  br label %.lr.ph

.lr.ph:                                           ; preds = %.lr.ph.preheader, %.lr.ph
  %indvars.iv = phi i64 [ 0, %.lr.ph.preheader ], [ %indvars.iv.next, %.lr.ph ]
  %21 = load ptr, ptr %0, align 8, !tbaa !28
  %22 = getelementptr inbounds nuw %struct.bf_t, ptr %20, i64 %indvars.iv
  store ptr %21, ptr %22, align 8, !tbaa !28
  %23 = getelementptr inbounds nuw i8, ptr %22, i64 8
  store i32 0, ptr %23, align 8, !tbaa !30
  %24 = getelementptr inbounds nuw i8, ptr %22, i64 16
  store i64 -9223372036854775808, ptr %24, align 8, !tbaa !31
  %25 = getelementptr inbounds nuw i8, ptr %22, i64 24
  tail call void @llvm.memset.p0.i64(ptr noundef nonnull align 8 dereferenceable(16) %25, i8 0, i64 16, i1 false)
  %indvars.iv.next = add nuw nsw i64 %indvars.iv, 1
  %exitcond.not = icmp eq i64 %indvars.iv.next, %wide.trip.count
  br i1 %exitcond.not, label %.lr.ph36.preheader, label %.lr.ph, !llvm.loop !145

.lr.ph36.preheader:                               ; preds = %.lr.ph
  %26 = tail call fastcc i32 @bf_integer_from_radix_rec(ptr noundef %0, ptr noundef %1, i64 noundef %2, i32 noundef 0, i64 noundef %2, i64 noundef %10, ptr noundef %20)
  %wide.trip.count43 = zext nneg i32 %.0.i to i64
  br label %.lr.ph36

.lr.ph36:                                         ; preds = %.lr.ph36.preheader, %bf_delete.exit
  %indvars.iv40 = phi i64 [ 0, %.lr.ph36.preheader ], [ %indvars.iv.next41, %bf_delete.exit ]
  %27 = getelementptr inbounds nuw %struct.bf_t, ptr %20, i64 %indvars.iv40
  %28 = load ptr, ptr %27, align 8, !tbaa !28
  %.not.i = icmp eq ptr %28, null
  br i1 %.not.i, label %bf_delete.exit, label %29

29:                                               ; preds = %.lr.ph36
  %30 = getelementptr inbounds nuw i8, ptr %27, i64 32
  %31 = load ptr, ptr %30, align 8, !tbaa !29
  %.not6.i = icmp eq ptr %31, null
  br i1 %.not6.i, label %bf_delete.exit, label %32

32:                                               ; preds = %29
  %.val.i = load ptr, ptr %28, align 8, !tbaa !19
  %33 = getelementptr i8, ptr %28, i64 8
  %.val7.i = load ptr, ptr %33, align 8, !tbaa !7
  %34 = tail call ptr %.val7.i(ptr noundef %.val.i, ptr noundef nonnull %31, i64 noundef 0) #21
  br label %bf_delete.exit

bf_delete.exit:                                   ; preds = %.lr.ph36, %29, %32
  %indvars.iv.next41 = add nuw nsw i64 %indvars.iv40, 1
  %exitcond44.not = icmp eq i64 %indvars.iv.next41, %wide.trip.count43
  br i1 %exitcond44.not, label %bf_free.exit, label %.lr.ph36, !llvm.loop !146

bf_free.exit:                                     ; preds = %bf_delete.exit
  %.val.i31 = load ptr, ptr %5, align 8, !tbaa !19
  %.val3.i = load ptr, ptr %19, align 8, !tbaa !7
  %35 = tail call ptr %.val3.i(ptr noundef %.val.i31, ptr noundef nonnull %20, i64 noundef 0) #21
  br label %36

36:                                               ; preds = %ceil_log2.exit, %bf_free.exit
  %.0 = phi i32 [ %26, %bf_free.exit ], [ -1, %ceil_log2.exit ]
  ret i32 %.0
}